target datalayout = "e-m:e-p270:32:32-p271:32:32-p272:64:64-i64:64-i128:128-f80:128-n8:16:32:64-S128"
target triple = "x86_64-pc-linux-gnu"

@hf_netlogon_pagefilelimit = internal global i32 0, align 4
@hf_netlogon_pagedpoollimit = internal global i32 0, align 4
@hf_netlogon_nonpagedpoollimit = internal global i32 0, align 4
@hf_netlogon_minworkingsetsize = internal global i32 0, align 4
@hf_netlogon_maxworkingsetsize = internal global i32 0, align 4
@hf_netlogon_timelimit = internal global i32 0, align 4
@ett_QUOTA_LIMITS = internal global i32 0, align 4
@.str.1224 = private unnamed_addr constant [13 x i8] c"QUOTA_LIMTS:\00", align 1

; Function Attrs: null_pointer_is_valid sspstrong uwtable
define internal i32 @netlogon_dissect_QUOTA_LIMITS(ptr noundef %0, i32 noundef %1, ptr noundef %2, ptr noundef %3, ptr noundef %4, ptr noundef %5) #0 {
  %7 = alloca ptr, align 8
  %8 = alloca i32, align 4
  %9 = alloca ptr, align 8
  %10 = alloca ptr, align 8
  %11 = alloca ptr, align 8
  %12 = alloca ptr, align 8
  %13 = alloca ptr, align 8
  %14 = alloca ptr, align 8
  %15 = alloca i32, align 4
  store ptr %0, ptr %7, align 8
  store i32 %1, ptr %8, align 4
  store ptr %2, ptr %9, align 8
  store ptr %3, ptr %10, align 8
  store ptr %4, ptr %11, align 8
  store ptr %5, ptr %12, align 8
  call void @llvm.lifetime.start.p0(i64 8, ptr %13) #15
  store ptr null, ptr %13, align 8
  call void @llvm.lifetime.start.p0(i64 8, ptr %14) #15
  store ptr null, ptr %14, align 8
  call void @llvm.lifetime.start.p0(i64 4, ptr %15) #15
  %16 = load i32, ptr %8, align 4
  store i32 %16, ptr %15, align 4
  %17 = load ptr, ptr %10, align 8
  %18 = icmp ne ptr %17, null
  br i1 %18, label %19, label %25

19:                                               ; preds = %6
  %20 = load ptr, ptr %10, align 8
  %21 = load ptr, ptr %7, align 8
  %22 = load i32, ptr %8, align 4
  %23 = load i32, ptr @ett_QUOTA_LIMITS, align 4
  %24 = call ptr @proto_tree_add_subtree(ptr noundef %20, ptr noundef %21, i32 noundef %22, i32 noundef 0, i32 noundef %23, ptr noundef %13, ptr noundef @.str.1224)
  store ptr %24, ptr %14, align 8
  br label %25

25:                                               ; preds = %19, %6
  %26 = load ptr, ptr %7, align 8
  %27 = load i32, ptr %8, align 4
  %28 = load ptr, ptr %9, align 8
  %29 = load ptr, ptr %14, align 8
  %30 = load ptr, ptr %11, align 8
  %31 = load ptr, ptr %12, align 8
  %32 = load i32, ptr @hf_netlogon_pagedpoollimit, align 4
  %33 = call i32 @dissect_ndr_uint32(ptr noundef %26, i32 noundef %27, ptr noundef %28, ptr noundef %29, ptr noundef %30, ptr noundef %31, i32 noundef %32, ptr noundef null)
  store i32 %33, ptr %8, align 4
  %34 = load ptr, ptr %7, align 8
  %35 = load i32, ptr %8, align 4
  %36 = load ptr, ptr %9, align 8
  %37 = load ptr, ptr %14, align 8
  %38 = load ptr, ptr %11, align 8
  %39 = load ptr, ptr %12, align 8
  %40 = load i32, ptr @hf_netlogon_nonpagedpoollimit, align 4
  %41 = call i32 @dissect_ndr_uint32(ptr noundef %34, i32 noundef %35, ptr noundef %36, ptr noundef %37, ptr noundef %38, ptr noundef %39, i32 noundef %40, ptr noundef null)
  store i32 %41, ptr %8, align 4
  %42 = load ptr, ptr %7, align 8
  %43 = load i32, ptr %8, align 4
  %44 = load ptr, ptr %9, align 8
  %45 = load ptr, ptr %14, align 8
  %46 = load ptr, ptr %11, align 8
  %47 = load ptr, ptr %12, align 8
  %48 = load i32, ptr @hf_netlogon_minworkingsetsize, align 4
  %49 = call i32 @dissect_ndr_uint32(ptr noundef %42, i32 noundef %43, ptr noundef %44, ptr noundef %45, ptr noundef %46, ptr noundef %47, i32 noundef %48, ptr noundef null)
  store i32 %49, ptr %8, align 4
  %50 = load ptr, ptr %7, align 8
  %51 = load i32, ptr %8, align 4
  %52 = load ptr, ptr %9, align 8
  %53 = load ptr, ptr %14, align 8
  %54 = load ptr, ptr %11, align 8
  %55 = load ptr, ptr %12, align 8
  %56 = load i32, ptr @hf_netlogon_maxworkingsetsize, align 4
  %57 = call i32 @dissect_ndr_uint32(ptr noundef %50, i32 noundef %51, ptr noundef %52, ptr noundef %53, ptr noundef %54, ptr noundef %55, i32 noundef %56, ptr noundef null)
  store i32 %57, ptr %8, align 4
  %58 = load ptr, ptr %7, align 8
  %59 = load i32, ptr %8, align 4
  %60 = load ptr, ptr %9, align 8
  %61 = load ptr, ptr %14, align 8
  %62 = load ptr, ptr %11, align 8
  %63 = load ptr, ptr %12, align 8
  %64 = load i32, ptr @hf_netlogon_pagefilelimit, align 4
  %65 = call i32 @dissect_ndr_uint32(ptr noundef %58, i32 noundef %59, ptr noundef %60, ptr noundef %61, ptr noundef %62, ptr noundef %63, i32 noundef %64, ptr noundef null)
  store i32 %65, ptr %8, align 4
  %66 = load ptr, ptr %7, align 8
  %67 = load i32, ptr %8, align 4
  %68 = load ptr, ptr %9, align 8
  %69 = load ptr, ptr %14, align 8
  %70 = load ptr, ptr %11, align 8
  %71 = load ptr, ptr %12, align 8
  %72 = load i32, ptr @hf_netlogon_timelimit, align 4
  %73 = call i32 @dissect_ndr_nt_NTTIME(ptr noundef %66, i32 noundef %67, ptr noundef %68, ptr noundef %69, ptr noundef %70, ptr noundef %71, i32 noundef %72)
  store i32 %73, ptr %8, align 4
  %74 = load ptr, ptr %13, align 8
  %75 = load i32, ptr %8, align 4
  %76 = load i32, ptr %15, align 4
  %77 = sub i32 %75, %76
  call void @proto_item_set_len(ptr noundef %74, i32 noundef %77)
  %78 = load i32, ptr %8, align 4
  call void @llvm.lifetime.end.p0(i64 4, ptr %15) #15
  call void @llvm.lifetime.end.p0(i64 8, ptr %14) #15
  call void @llvm.lifetime.end.p0(i64 8, ptr %13) #15
  ret i32 %78
}