; Function Attrs: null_pointer_is_valid sspstrong uwtable
define internal fastcc i32 @netlogon_dissect_QUOTA_LIMITS(ptr noundef %0, i32 noundef %1, ptr noundef %2, ptr noundef %3, ptr noundef %4, ptr noundef %5) unnamed_addr #0 {
  %7 = alloca ptr, align 8
  call void @llvm.lifetime.start.p0(i64 8, ptr nonnull %7) #15
  store ptr null, ptr %7, align 8
  %.not = icmp eq ptr %3, null
  br i1 %.not, label %11, label %8

8:                                                ; preds = %6
  %9 = load i32, ptr @ett_QUOTA_LIMITS, align 4
  %10 = call ptr @proto_tree_add_subtree(ptr noundef nonnull %3, ptr noundef %0, i32 noundef %1, i32 noundef 0, i32 noundef %9, ptr noundef nonnull %7, ptr noundef nonnull @.str.1224)
  br label %11

11:                                               ; preds = %8, %6
  %.0 = phi ptr [ %10, %8 ], [ null, %6 ]
  %12 = load i32, ptr @hf_netlogon_pagedpoollimit, align 4
  %13 = call i32 @dissect_ndr_uint32(ptr noundef %0, i32 noundef %1, ptr noundef %2, ptr noundef %.0, ptr noundef %4, ptr noundef %5, i32 noundef %12, ptr noundef null)
  %14 = load i32, ptr @hf_netlogon_nonpagedpoollimit, align 4
  %15 = call i32 @dissect_ndr_uint32(ptr noundef %0, i32 noundef %13, ptr noundef %2, ptr noundef %.0, ptr noundef %4, ptr noundef %5, i32 noundef %14, ptr noundef null)
  %16 = load i32, ptr @hf_netlogon_minworkingsetsize, align 4
  %17 = call i32 @dissect_ndr_uint32(ptr noundef %0, i32 noundef %15, ptr noundef %2, ptr noundef %.0, ptr noundef %4, ptr noundef %5, i32 noundef %16, ptr noundef null)
  %18 = load i32, ptr @hf_netlogon_maxworkingsetsize, align 4
  %19 = call i32 @dissect_ndr_uint32(ptr noundef %0, i32 noundef %17, ptr noundef %2, ptr noundef %.0, ptr noundef %4, ptr noundef %5, i32 noundef %18, ptr noundef null)
  %20 = load i32, ptr @hf_netlogon_pagefilelimit, align 4
  %21 = call i32 @dissect_ndr_uint32(ptr noundef %0, i32 noundef %19, ptr noundef %2, ptr noundef %.0, ptr noundef %4, ptr noundef %5, i32 noundef %20, ptr noundef null)
  %22 = load i32, ptr @hf_netlogon_timelimit, align 4
  %23 = call i32 @dissect_ndr_nt_NTTIME(ptr noundef %0, i32 noundef %21, ptr noundef %2, ptr noundef %.0, ptr noundef %4, ptr noundef %5, i32 noundef %22)
  %24 = load ptr, ptr %7, align 8
  %25 = sub i32 %23, %1
  call void @proto_item_set_len(ptr noundef %24, i32 noundef %25)
  call void @llvm.lifetime.end.p0(i64 8, ptr nonnull %7) #15
  ret i32 %23
}